(dp0
S'show_imports'
p1
I0
sS'prj_name'
p2
S''
p3
sS'docformat'
p4
S'epytext'
p5
sS'inheritance'
p6
S'grouped'
p7
sS'help'
p8
NsS'modules'
p9
(S'/home/tiderko/workspace/ros-fkie/core_fkie/master_discovery_fkie/src/master_discovery_fkie/__init__.py'
p10
S'/home/tiderko/workspace/ros-fkie/core_fkie/master_discovery_fkie/src/master_discovery_fkie/interface_finder.py'
p11
S'/home/tiderko/workspace/ros-fkie/core_fkie/master_discovery_fkie/src/master_discovery_fkie/master_discovery.py'
p12
S'/home/tiderko/workspace/ros-fkie/core_fkie/master_discovery_fkie/src/master_discovery_fkie/master_info.py'
p13
S'/home/tiderko/workspace/ros-fkie/core_fkie/master_discovery_fkie/src/master_discovery_fkie/master_monitor.py'
p14
S'/home/tiderko/workspace/ros-fkie/core_fkie/master_discovery_fkie/src/master_discovery_fkie/udp.py'
p15
S'/home/tiderko/workspace/ros-fkie/core_fkie/master_discovery_fkie/src/master_discovery_fkie/msg/_LinkState.py'
p16
S'/home/tiderko/workspace/ros-fkie/core_fkie/master_discovery_fkie/src/master_discovery_fkie/msg/_LinkStatesStamped.py'
p17
S'/home/tiderko/workspace/ros-fkie/core_fkie/master_discovery_fkie/src/master_discovery_fkie/msg/_MasterState.py'
p18
S'/home/tiderko/workspace/ros-fkie/core_fkie/master_discovery_fkie/src/master_discovery_fkie/msg/_ROSMaster.py'
p19
S'/home/tiderko/workspace/ros-fkie/core_fkie/master_discovery_fkie/src/master_discovery_fkie/srv/_DiscoverMasters.py'
p20
tp21
sS'private'
p22
I1
sS'prj_url'
p23
NsS'introspect_or_parse'
p24
S'both'
p25
sS'frames'
p26
I1
sS'css'
p27
S'default'
p28
sS'target'
p29
S'html'
p30
s.