(dp0
S'show_imports'
p1
I0
sS'prj_name'
p2
S''
p3
sS'docformat'
p4
S'epytext'
p5
sS'inheritance'
p6
S'grouped'
p7
sS'help'
p8
NsS'modules'
p9
(S'/home/tiderko/workspace/ros-fkie/core_fkie/fkie_master_sync/src/fkie_master_sync/__init__.py'
p10
S'/home/tiderko/workspace/ros-fkie/core_fkie/fkie_master_sync/src/fkie_master_sync/master_sync.py'
p11
S'/home/tiderko/workspace/ros-fkie/core_fkie/fkie_master_sync/src/fkie_master_sync/sync_thread.py'
p12
tp13
sS'private'
p14
I1
sS'prj_url'
p15
NsS'introspect_or_parse'
p16
S'both'
p17
sS'frames'
p18
I1
sS'css'
p19
S'default'
p20
sS'target'
p21
S'html'
p22
s.