(dp0
S'show_imports'
p1
I0
sS'prj_name'
p2
S''
p3
sS'docformat'
p4
S'epytext'
p5
sS'inheritance'
p6
S'grouped'
p7
sS'help'
p8
NsS'modules'
p9
(S'/home/tiderko/workspace/ros-fkie/core_fkie/default_cfg_fkie/src/default_cfg_fkie/srv/_ListNodes.py'
p10
S'/home/tiderko/workspace/ros-fkie/core_fkie/default_cfg_fkie/src/default_cfg_fkie/srv/_LoadLaunch.py'
p11
S'/home/tiderko/workspace/ros-fkie/core_fkie/default_cfg_fkie/src/default_cfg_fkie/srv/_Task.py'
p12
S'/home/tiderko/workspace/ros-fkie/core_fkie/default_cfg_fkie/src/default_cfg_fkie/srv/__init__.py'
p13
S'/home/tiderko/workspace/ros-fkie/core_fkie/master_discovery_fkie/src/master_discovery_fkie/interface_finder.py'
p14
S'/home/tiderko/workspace/ros-fkie/core_fkie/master_discovery_fkie/src/master_discovery_fkie/msg/_LinkState.py'
p15
S'/home/tiderko/workspace/ros-fkie/core_fkie/master_discovery_fkie/src/master_discovery_fkie/msg/_LinkStatesStamped.py'
p16
S'/home/tiderko/workspace/ros-fkie/core_fkie/master_discovery_fkie/src/master_discovery_fkie/msg/_MasterState.py'
p17
S'/home/tiderko/workspace/ros-fkie/core_fkie/master_discovery_fkie/src/master_discovery_fkie/msg/_ROSMaster.py'
p18
S'/home/tiderko/workspace/ros-fkie/core_fkie/master_discovery_fkie/src/master_discovery_fkie/msg/__init__.py'
p19
S'/home/tiderko/workspace/ros-fkie/core_fkie/master_discovery_fkie/src/master_discovery_fkie/srv/_DiscoverMasters.py'
p20
S'/home/tiderko/workspace/ros-fkie/core_fkie/master_discovery_fkie/src/master_discovery_fkie/srv/__init__.py'
p21
S'/home/tiderko/workspace/ros-fkie/gui_fkie/node_manager_fkie/src/node_manager_fkie/__init__.py'
p22
S'/home/tiderko/workspace/ros-fkie/gui_fkie/node_manager_fkie/src/node_manager_fkie/default_cfg_handler.py'
p23
S'/home/tiderko/workspace/ros-fkie/gui_fkie/node_manager_fkie/src/node_manager_fkie/discovery_listener.py'
p24
S'/home/tiderko/workspace/ros-fkie/gui_fkie/node_manager_fkie/src/node_manager_fkie/html_delegate.py'
p25
S'/home/tiderko/workspace/ros-fkie/gui_fkie/node_manager_fkie/src/node_manager_fkie/launch_config.py'
p26
S'/home/tiderko/workspace/ros-fkie/gui_fkie/node_manager_fkie/src/node_manager_fkie/launch_list_model.py'
p27
S'/home/tiderko/workspace/ros-fkie/gui_fkie/node_manager_fkie/src/node_manager_fkie/main_window.py'
p28
S'/home/tiderko/workspace/ros-fkie/gui_fkie/node_manager_fkie/src/node_manager_fkie/master_view_proxy.py'
p29
S'/home/tiderko/workspace/ros-fkie/gui_fkie/node_manager_fkie/src/node_manager_fkie/name_resolution.py'
p30
S'/home/tiderko/workspace/ros-fkie/gui_fkie/node_manager_fkie/src/node_manager_fkie/node_tree_model.py'
p31
S'/home/tiderko/workspace/ros-fkie/gui_fkie/node_manager_fkie/src/node_manager_fkie/parameter_dialog.py'
p32
S'/home/tiderko/workspace/ros-fkie/gui_fkie/node_manager_fkie/src/node_manager_fkie/parameter_list_model.py'
p33
S'/home/tiderko/workspace/ros-fkie/gui_fkie/node_manager_fkie/src/node_manager_fkie/run_dialog.py'
p34
S'/home/tiderko/workspace/ros-fkie/gui_fkie/node_manager_fkie/src/node_manager_fkie/screen_handler.py'
p35
S'/home/tiderko/workspace/ros-fkie/gui_fkie/node_manager_fkie/src/node_manager_fkie/service_list_model.py'
p36
S'/home/tiderko/workspace/ros-fkie/gui_fkie/node_manager_fkie/src/node_manager_fkie/ssh_handler.py'
p37
S'/home/tiderko/workspace/ros-fkie/gui_fkie/node_manager_fkie/src/node_manager_fkie/start_handler.py'
p38
S'/home/tiderko/workspace/ros-fkie/gui_fkie/node_manager_fkie/src/node_manager_fkie/topic_list_model.py'
p39
S'/home/tiderko/workspace/ros-fkie/core_fkie/master_discovery_fkie/src/master_discovery_fkie/master_info.py'
p40
S'/home/tiderko/workspace/ros-fkie/gui_fkie/node_manager_fkie/src/node_manager_fkie/update_handler.py'
p41
S'/home/tiderko/workspace/ros-fkie/gui_fkie/node_manager_fkie/src/node_manager_fkie/update_thread.py'
p42
S'/home/tiderko/workspace/ros-fkie/gui_fkie/node_manager_fkie/src/node_manager_fkie/xml_editor.py'
p43
S'/home/tiderko/workspace/ros-fkie/gui_fkie/node_manager_fkie/src/node_manager_fkie/xml_highlighter.py'
p44
tp45
sS'private'
p46
I1
sS'prj_url'
p47
NsS'introspect_or_parse'
p48
S'both'
p49
sS'frames'
p50
I1
sS'css'
p51
S'default'
p52
sS'target'
p53
S'html'
p54
s.